target datalayout = "e-m:e-p270:32:32-p271:32:32-p272:64:64-i64:64-i128:128-f80:128-n8:16:32:64-S128"
target triple = "x86_64-pc-linux-gnu"

@_ZN7logging12_GLOBAL__N_115g_min_log_levelE = internal global i32 0, align 4
@.str.14 = private unnamed_addr constant [2 x i8] c"\0A\00", align 1

; Function Attrs: mustprogress uwtable
define void @_ZN7logging6RawLogEiPKc(i32 noundef %0, ptr noundef %1) #0 {
  %3 = alloca i32, align 4
  %4 = alloca ptr, align 8
  %5 = alloca i64, align 8
  %6 = alloca i64, align 8
  %7 = alloca i32, align 4
  %8 = alloca i64, align 8
  %9 = alloca i64, align 8
  %10 = alloca i64, align 8
  %11 = alloca i64, align 8
  store i32 %0, ptr %3, align 4, !tbaa !18
  store ptr %1, ptr %4, align 8, !tbaa !8
  %12 = load i32, ptr %3, align 4, !tbaa !18
  %13 = load i32, ptr @_ZN7logging12_GLOBAL__N_115g_min_log_levelE, align 4, !tbaa !18
  %14 = icmp sge i32 %12, %13
  br i1 %14, label %15, label %92

15:                                               ; preds = %2
  %16 = load ptr, ptr %4, align 8, !tbaa !8
  %17 = icmp ne ptr %16, null
  br i1 %17, label %18, label %92

18:                                               ; preds = %15
  call void @llvm.lifetime.start.p0(i64 8, ptr %5) #16
  store i64 0, ptr %5, align 8, !tbaa !22
  call void @llvm.lifetime.start.p0(i64 8, ptr %6) #16
  %19 = load ptr, ptr %4, align 8, !tbaa !8
  %20 = call i64 @strlen(ptr noundef %19) #22
  store i64 %20, ptr %6, align 8, !tbaa !22
  call void @llvm.lifetime.start.p0(i64 4, ptr %7) #16
  br label %21

21:                                               ; preds = %50, %18
  %22 = load i64, ptr %5, align 8, !tbaa !22
  %23 = load i64, ptr %6, align 8, !tbaa !22
  %24 = icmp ult i64 %22, %23
  br i1 %24, label %25, label %55

25:                                               ; preds = %21
  call void @llvm.lifetime.start.p0(i64 8, ptr %8) #16
  br label %26

26:                                               ; preds = %41, %25
  %27 = load ptr, ptr %4, align 8, !tbaa !8
  %28 = load i64, ptr %5, align 8, !tbaa !22
  %29 = getelementptr inbounds nuw i8, ptr %27, i64 %28
  %30 = load i64, ptr %6, align 8, !tbaa !22
  %31 = load i64, ptr %5, align 8, !tbaa !22
  %32 = sub i64 %30, %31
  %33 = call i64 @write(i32 noundef 2, ptr noundef %29, i64 noundef %32)
  store i64 %33, ptr %8, align 8, !tbaa !22
  br label %34

34:                                               ; preds = %26
  %35 = load i64, ptr %8, align 8, !tbaa !22
  %36 = icmp eq i64 %35, -1
  br i1 %36, label %37, label %41

37:                                               ; preds = %34
  %38 = call ptr @__errno_location() #21
  %39 = load i32, ptr %38, align 4, !tbaa !18
  %40 = icmp eq i32 %39, 4
  br label %41

41:                                               ; preds = %37, %34
  %42 = phi i1 [ false, %34 ], [ %40, %37 ]
  br i1 %42, label %26, label %43, !llvm.loop !101

43:                                               ; preds = %41
  %44 = load i64, ptr %8, align 8, !tbaa !22
  store i64 %44, ptr %9, align 8, !tbaa !22
  call void @llvm.lifetime.end.p0(i64 8, ptr %8) #16
  %45 = load i64, ptr %9, align 8, !tbaa !22
  %46 = trunc i64 %45 to i32
  store i32 %46, ptr %7, align 4, !tbaa !18
  %47 = load i32, ptr %7, align 4, !tbaa !18
  %48 = icmp slt i32 %47, 0
  br i1 %48, label %49, label %50

49:                                               ; preds = %43
  br label %55

50:                                               ; preds = %43
  %51 = load i32, ptr %7, align 4, !tbaa !18
  %52 = sext i32 %51 to i64
  %53 = load i64, ptr %5, align 8, !tbaa !22
  %54 = add i64 %53, %52
  store i64 %54, ptr %5, align 8, !tbaa !22
  br label %21, !llvm.loop !103

55:                                               ; preds = %49, %21
  %56 = load i64, ptr %6, align 8, !tbaa !22
  %57 = icmp ugt i64 %56, 0
  br i1 %57, label %58, label %91

58:                                               ; preds = %55
  %59 = load ptr, ptr %4, align 8, !tbaa !8
  %60 = load i64, ptr %6, align 8, !tbaa !22
  %61 = sub i64 %60, 1
  %62 = getelementptr inbounds nuw i8, ptr %59, i64 %61
  %63 = load i8, ptr %62, align 1, !tbaa !89
  %64 = sext i8 %63 to i32
  %65 = icmp ne i32 %64, 10
  br i1 %65, label %66, label %91

66:                                               ; preds = %58
  br label %67

67:                                               ; preds = %87, %66
  call void @llvm.lifetime.start.p0(i64 8, ptr %10) #16
  br label %68

68:                                               ; preds = %77, %67
  %69 = call i64 @write(i32 noundef 2, ptr noundef @.str.14, i64 noundef 1)
  store i64 %69, ptr %10, align 8, !tbaa !22
  br label %70

70:                                               ; preds = %68
  %71 = load i64, ptr %10, align 8, !tbaa !22
  %72 = icmp eq i64 %71, -1
  br i1 %72, label %73, label %77

73:                                               ; preds = %70
  %74 = call ptr @__errno_location() #21
  %75 = load i32, ptr %74, align 4, !tbaa !18
  %76 = icmp eq i32 %75, 4
  br label %77

77:                                               ; preds = %73, %70
  %78 = phi i1 [ false, %70 ], [ %76, %73 ]
  br i1 %78, label %68, label %79, !llvm.loop !104

79:                                               ; preds = %77
  %80 = load i64, ptr %10, align 8, !tbaa !22
  store i64 %80, ptr %11, align 8, !tbaa !22
  call void @llvm.lifetime.end.p0(i64 8, ptr %10) #16
  %81 = load i64, ptr %11, align 8, !tbaa !22
  %82 = trunc i64 %81 to i32
  store i32 %82, ptr %7, align 4, !tbaa !18
  %83 = load i32, ptr %7, align 4, !tbaa !18
  %84 = icmp slt i32 %83, 0
  br i1 %84, label %85, label %86

85:                                               ; preds = %79
  br label %90

86:                                               ; preds = %79
  br label %87

87:                                               ; preds = %86
  %88 = load i32, ptr %7, align 4, !tbaa !18
  %89 = icmp ne i32 %88, 1
  br i1 %89, label %67, label %90, !llvm.loop !105

90:                                               ; preds = %87, %85
  br label %91

91:                                               ; preds = %90, %58, %55
  call void @llvm.lifetime.end.p0(i64 4, ptr %7) #16
  call void @llvm.lifetime.end.p0(i64 8, ptr %6) #16
  call void @llvm.lifetime.end.p0(i64 8, ptr %5) #16
  br label %92

92:                                               ; preds = %91, %15, %2
  %93 = load i32, ptr %3, align 4, !tbaa !18
  %94 = icmp eq i32 %93, 3
  br i1 %94, label %95, label %96

95:                                               ; preds = %92
  call void @_ZN4base5debug13BreakDebuggerEv()
  br label %96

96:                                               ; preds = %95, %92
  ret void
}