; Function Attrs: mustprogress uwtable
define void @_ZN7logging6RawLogEiPKc(i32 noundef %0, ptr noundef readonly captures(address_is_null) %1) local_unnamed_addr #0 {
  %3 = load i32, ptr @_ZN7logging12_GLOBAL__N_115g_min_log_levelE, align 4, !tbaa !19
  %4 = icmp sge i32 %0, %3
  %5 = icmp ne ptr %1, null
  %or.cond = and i1 %5, %4
  br i1 %or.cond, label %6, label %.critedge3.thread

6:                                                ; preds = %2
  %7 = tail call i64 @strlen(ptr noundef nonnull dereferenceable(1) %1) #31
  %.not42 = icmp eq i64 %7, 0
  br i1 %.not42, label %.critedge3.thread, label %.preheader36

.preheader36:                                     ; preds = %6, %18
  %.041 = phi i64 [ %20, %18 ], [ 0, %6 ]
  %8 = getelementptr inbounds nuw i8, ptr %1, i64 %.041
  %9 = sub i64 %7, %.041
  br label %10

10:                                               ; preds = %.preheader36, %13
  %11 = tail call i64 @write(i32 noundef 2, ptr noundef nonnull %8, i64 noundef %9)
  %12 = icmp eq i64 %11, -1
  br i1 %12, label %13, label %.critedge

13:                                               ; preds = %10
  %14 = tail call ptr @__errno_location() #30
  %15 = load i32, ptr %14, align 4, !tbaa !19
  %16 = icmp eq i32 %15, 4
  br i1 %16, label %10, label %.critedge.thread, !llvm.loop !156

.critedge:                                        ; preds = %10
  %17 = and i64 %11, 2147483648
  %.not = icmp eq i64 %17, 0
  br i1 %.not, label %18, label %.critedge.thread

18:                                               ; preds = %.critedge
  %19 = and i64 %11, 2147483647
  %20 = add i64 %19, %.041
  %21 = icmp ult i64 %20, %7
  br i1 %21, label %.preheader36, label %.critedge.thread, !llvm.loop !158

.critedge.thread:                                 ; preds = %.critedge, %18, %13
  %22 = getelementptr i8, ptr %1, i64 %7
  %23 = getelementptr i8, ptr %22, i64 -1
  %24 = load i8, ptr %23, align 1, !tbaa !32
  %.not32 = icmp eq i8 %24, 10
  br i1 %.not32, label %.critedge3.thread, label %.preheader

.preheader:                                       ; preds = %.critedge.thread, %.preheader.backedge
  %25 = tail call i64 @write(i32 noundef 2, ptr noundef nonnull @.str.14, i64 noundef 1)
  %26 = icmp eq i64 %25, -1
  br i1 %26, label %27, label %.critedge3

27:                                               ; preds = %.preheader
  %28 = tail call ptr @__errno_location() #30
  %29 = load i32, ptr %28, align 4, !tbaa !19
  %30 = icmp eq i32 %29, 4
  br i1 %30, label %.preheader.backedge, label %.critedge3.thread

.preheader.backedge:                              ; preds = %27, %.critedge3
  br label %.preheader, !llvm.loop !159

.critedge3:                                       ; preds = %.preheader
  %31 = trunc i64 %25 to i32
  %32 = icmp sgt i32 %31, -1
  %33 = icmp ne i32 %31, 1
  %or.cond5 = and i1 %32, %33
  br i1 %or.cond5, label %.preheader.backedge, label %.critedge3.thread

.critedge3.thread:                                ; preds = %.critedge3, %27, %6, %.critedge.thread, %2
  %34 = icmp eq i32 %0, 3
  br i1 %34, label %35, label %36

35:                                               ; preds = %.critedge3.thread
  tail call void @_ZN4base5debug13BreakDebuggerEv()
  br label %36

36:                                               ; preds = %35, %.critedge3.thread
  ret void
}